target datalayout = "e-m:e-p270:32:32-p271:32:32-p272:64:64-i64:64-i128:128-f80:128-n8:16:32:64-S128"
target triple = "x86_64-pc-linux-gnu"

%struct.expert_field = type { i32, i32 }
%struct._packet_info = type { ptr, ptr, i32, i32, %struct.nstime_t, %struct.nstime_t, %struct.nstime_t, i8, ptr, ptr, ptr, ptr, %struct._address, %struct._address, %struct._address, %struct._address, %struct._address, %struct._address, i32, ptr, i8, [3 x i8], %struct.anon, i32, i32, i32, i32, ptr, i8, ptr, ptr, i16, i16, i32, i32, i16, i32, i32, ptr, ptr, ptr, i8, i8, i16, i16, i16, i32, i16, i16, ptr, ptr, ptr, ptr, ptr, i32, i32 }
%struct.nstime_t = type { i64, i32 }
%struct._address = type { i32, i32, ptr, ptr }
%struct.anon = type { i8, [3 x i8] }

@hf_bytes = internal global i32 0, align 4
@hf_cemi_ext_oi = internal global i32 0, align 4
@hf_cemi_ext_pid = internal global i32 0, align 4
@ei_knxip_error = external global %struct.expert_field, align 4
@.str.335 = private unnamed_addr constant [7 x i8] c" OI=%u\00", align 1
@.str.336 = private unnamed_addr constant [8 x i8] c", OI=%u\00", align 1
@.str.341 = private unnamed_addr constant [6 x i8] c" P=%u\00", align 1
@.str.342 = private unnamed_addr constant [9 x i8] c", PID=%u\00", align 1
@.str.343 = private unnamed_addr constant [6 x i8] c" = %s\00", align 1
@pid7_vals = internal constant [3 x { i32, [4 x i8], ptr }] [{ i32, [4 x i8], ptr } { i32 51, [4 x i8] zeroinitializer, ptr @.str.431 }, { i32, [4 x i8], ptr } { i32 52, [4 x i8] zeroinitializer, ptr @.str.432 }, { i32, [4 x i8], ptr } zeroinitializer], align 16
@pid9_vals = internal constant [3 x { i32, [4 x i8], ptr }] [{ i32, [4 x i8], ptr } { i32 51, [4 x i8] zeroinitializer, ptr @.str.446 }, { i32, [4 x i8], ptr } { i32 52, [4 x i8] zeroinitializer, ptr @.str.447 }, { i32, [4 x i8], ptr } zeroinitializer], align 16
@.str.569 = private unnamed_addr constant [18 x i8] c"Expected: 3 bytes\00", align 1
@.str.616 = private unnamed_addr constant [23 x i8] c"? Object Instance, PID\00", align 1

; Function Attrs: null_pointer_is_valid sspstrong uwtable
define internal ptr @get_pid_name(i32 noundef %0, i32 noundef %1) #0 {
  %3 = alloca ptr, align 8
  %4 = alloca i32, align 4
  %5 = alloca i32, align 4
  %6 = alloca ptr, align 8
  %7 = alloca i32, align 4
  store i32 %0, ptr %4, align 4
  store i32 %1, ptr %5, align 4
  %8 = load i32, ptr %5, align 4
  %9 = icmp sle i32 %8, 50
  br i1 %9, label %10, label %13

10:                                               ; preds = %2
  %11 = load i32, ptr %5, align 4
  %12 = call ptr @try_val_to_str(i32 noundef %11, ptr noundef @pid_vals)
  store ptr %12, ptr %3, align 8
  br label %34

13:                                               ; preds = %2
  call void @llvm.lifetime.start.p0(i64 8, ptr %6) #9
  store ptr null, ptr %6, align 8
  %14 = load i32, ptr %4, align 4
  switch i32 %14, label %23 [
    i32 0, label %15
    i32 1, label %16
    i32 6, label %17
    i32 7, label %18
    i32 8, label %19
    i32 9, label %20
    i32 11, label %21
    i32 17, label %22
  ]

15:                                               ; preds = %13
  store ptr @pid0_vals, ptr %6, align 8
  br label %23

16:                                               ; preds = %13
  store ptr @pid1_vals, ptr %6, align 8
  br label %23

17:                                               ; preds = %13
  store ptr @pid6_vals, ptr %6, align 8
  br label %23

18:                                               ; preds = %13
  store ptr @pid7_vals, ptr %6, align 8
  br label %23

19:                                               ; preds = %13
  store ptr @pid8_vals, ptr %6, align 8
  br label %23

20:                                               ; preds = %13
  store ptr @pid9_vals, ptr %6, align 8
  br label %23

21:                                               ; preds = %13
  store ptr @pid11_vals, ptr %6, align 8
  br label %23

22:                                               ; preds = %13
  store ptr @pid17_vals, ptr %6, align 8
  br label %23

23:                                               ; preds = %13, %22, %21, %20, %19, %18, %17, %16, %15
  %24 = load ptr, ptr %6, align 8
  %25 = icmp ne ptr %24, null
  br i1 %25, label %26, label %30

26:                                               ; preds = %23
  %27 = load i32, ptr %5, align 4
  %28 = load ptr, ptr %6, align 8
  %29 = call ptr @try_val_to_str(i32 noundef %27, ptr noundef %28)
  store ptr %29, ptr %3, align 8
  store i32 1, ptr %7, align 4
  br label %31

30:                                               ; preds = %23
  store i32 0, ptr %7, align 4
  br label %31

31:                                               ; preds = %30, %26
  call void @llvm.lifetime.end.p0(i64 8, ptr %6) #9
  %32 = load i32, ptr %7, align 4
  switch i32 %32, label %36 [
    i32 0, label %33
    i32 1, label %34
  ]

33:                                               ; preds = %31
  store ptr null, ptr %3, align 8
  br label %34

34:                                               ; preds = %33, %31, %10
  %35 = load ptr, ptr %3, align 8
  ret ptr %35

36:                                               ; preds = %31
  unreachable
}

; Function Attrs: null_pointer_is_valid sspstrong uwtable
define internal void @dissect_pid_ext(ptr noundef %0, ptr noundef %1, ptr noundef %2, ptr noundef %3, ptr noundef %4, i32 noundef %5, ptr noundef %6) #0 {
  %8 = alloca ptr, align 8
  %9 = alloca ptr, align 8
  %10 = alloca ptr, align 8
  %11 = alloca ptr, align 8
  %12 = alloca ptr, align 8
  %13 = alloca i32, align 4
  %14 = alloca ptr, align 8
  %15 = alloca i32, align 4
  %16 = alloca ptr, align 8
  %17 = alloca i8, align 1
  %18 = alloca i16, align 2
  %19 = alloca ptr, align 8
  %20 = alloca i16, align 2
  %21 = alloca ptr, align 8
  %22 = alloca ptr, align 8
  store ptr %0, ptr %8, align 8
  store ptr %1, ptr %9, align 8
  store ptr %2, ptr %10, align 8
  store ptr %3, ptr %11, align 8
  store ptr %4, ptr %12, align 8
  store i32 %5, ptr %13, align 4
  store ptr %6, ptr %14, align 8
  call void @llvm.lifetime.start.p0(i64 4, ptr %15) #9
  %23 = load ptr, ptr %12, align 8
  %24 = load i32, ptr %23, align 4
  store i32 %24, ptr %15, align 4
  call void @llvm.lifetime.start.p0(i64 8, ptr %16) #9
  %25 = load ptr, ptr %9, align 8
  %26 = getelementptr inbounds nuw %struct._packet_info, ptr %25, i32 0, i32 1
  %27 = load ptr, ptr %26, align 8
  store ptr %27, ptr %16, align 8
  call void @llvm.lifetime.start.p0(i64 1, ptr %17) #9
  store i8 0, ptr %17, align 1
  call void @llvm.lifetime.start.p0(i64 2, ptr %18) #9
  %28 = load ptr, ptr %8, align 8
  %29 = load ptr, ptr %9, align 8
  %30 = load ptr, ptr %10, align 8
  %31 = load ptr, ptr %11, align 8
  %32 = load i32, ptr %13, align 4
  %33 = call zeroext i16 @dissect_ot(ptr noundef %28, ptr noundef %29, ptr noundef %30, ptr noundef %31, ptr noundef %15, i32 noundef %32, ptr noundef %17)
  store i16 %33, ptr %18, align 2
  %34 = load i32, ptr %15, align 4
  %35 = add i32 %34, 3
  %36 = load i32, ptr %13, align 4
  %37 = icmp sgt i32 %35, %36
  br i1 %37, label %38, label %51

38:                                               ; preds = %7
  call void @llvm.lifetime.start.p0(i64 8, ptr %19) #9
  %39 = load ptr, ptr %11, align 8
  %40 = load i32, ptr @hf_bytes, align 4
  %41 = load ptr, ptr %8, align 8
  %42 = load i32, ptr %15, align 4
  %43 = load i32, ptr %13, align 4
  %44 = load i32, ptr %15, align 4
  %45 = sub i32 %43, %44
  %46 = call ptr (ptr, i32, ptr, i32, i32, ptr, ptr, ...) @proto_tree_add_bytes_format(ptr noundef %39, i32 noundef %40, ptr noundef %41, i32 noundef %42, i32 noundef %45, ptr noundef null, ptr noundef @.str.616)
  store ptr %46, ptr %19, align 8
  %47 = load ptr, ptr %9, align 8
  %48 = load ptr, ptr %19, align 8
  %49 = call ptr (ptr, ptr, ptr, ptr, ...) @expert_add_info_format(ptr noundef %47, ptr noundef %48, ptr noundef @ei_knxip_error, ptr noundef @.str.569)
  store i8 1, ptr %17, align 1
  %50 = load i32, ptr %13, align 4
  store i32 %50, ptr %15, align 4
  call void @llvm.lifetime.end.p0(i64 8, ptr %19) #9
  br label %105

51:                                               ; preds = %7
  call void @llvm.lifetime.start.p0(i64 2, ptr %20) #9
  %52 = load ptr, ptr %8, align 8
  %53 = load i32, ptr %15, align 4
  %54 = call zeroext i16 @tvb_get_ntohs(ptr noundef %52, i32 noundef %53)
  %55 = zext i16 %54 to i32
  %56 = ashr i32 %55, 4
  %57 = trunc i32 %56 to i16
  store i16 %57, ptr %20, align 2
  %58 = load ptr, ptr %16, align 8
  %59 = load i16, ptr %20, align 2
  %60 = zext i16 %59 to i32
  call void (ptr, i32, ptr, ...) @col_append_fstr(ptr noundef %58, i32 noundef 25, ptr noundef @.str.335, i32 noundef %60)
  %61 = load ptr, ptr %10, align 8
  %62 = load i16, ptr %20, align 2
  %63 = zext i16 %62 to i32
  call void (ptr, ptr, ...) @proto_item_append_text(ptr noundef %61, ptr noundef @.str.336, i32 noundef %63)
  %64 = load ptr, ptr %11, align 8
  %65 = load i32, ptr @hf_cemi_ext_oi, align 4
  %66 = load ptr, ptr %8, align 8
  %67 = load i32, ptr %15, align 4
  %68 = call ptr @proto_tree_add_item(ptr noundef %64, i32 noundef %65, ptr noundef %66, i32 noundef %67, i32 noundef 2, i32 noundef 0)
  %69 = load i32, ptr %15, align 4
  %70 = add i32 %69, 1
  store i32 %70, ptr %15, align 4
  %71 = load ptr, ptr %8, align 8
  %72 = load i32, ptr %15, align 4
  %73 = call zeroext i16 @tvb_get_ntohs(ptr noundef %71, i32 noundef %72)
  %74 = zext i16 %73 to i32
  %75 = and i32 %74, 4095
  %76 = trunc i32 %75 to i16
  store i16 %76, ptr %20, align 2
  %77 = load ptr, ptr %16, align 8
  %78 = load i16, ptr %20, align 2
  %79 = zext i16 %78 to i32
  call void (ptr, i32, ptr, ...) @col_append_fstr(ptr noundef %77, i32 noundef 25, ptr noundef @.str.341, i32 noundef %79)
  %80 = load ptr, ptr %10, align 8
  %81 = load i16, ptr %20, align 2
  %82 = zext i16 %81 to i32
  call void (ptr, ptr, ...) @proto_item_append_text(ptr noundef %80, ptr noundef @.str.342, i32 noundef %82)
  %83 = load ptr, ptr %11, align 8
  %84 = icmp ne ptr %83, null
  br i1 %84, label %85, label %102

85:                                               ; preds = %51
  call void @llvm.lifetime.start.p0(i64 8, ptr %21) #9
  %86 = load ptr, ptr %11, align 8
  %87 = load i32, ptr @hf_cemi_ext_pid, align 4
  %88 = load ptr, ptr %8, align 8
  %89 = load i32, ptr %15, align 4
  %90 = call ptr @proto_tree_add_item(ptr noundef %86, i32 noundef %87, ptr noundef %88, i32 noundef %89, i32 noundef 2, i32 noundef 0)
  store ptr %90, ptr %21, align 8
  call void @llvm.lifetime.start.p0(i64 8, ptr %22) #9
  %91 = load i16, ptr %18, align 2
  %92 = zext i16 %91 to i32
  %93 = load i16, ptr %20, align 2
  %94 = zext i16 %93 to i32
  %95 = call ptr @get_pid_name(i32 noundef %92, i32 noundef %94)
  store ptr %95, ptr %22, align 8
  %96 = load ptr, ptr %22, align 8
  %97 = icmp ne ptr %96, null
  br i1 %97, label %98, label %101

98:                                               ; preds = %85
  %99 = load ptr, ptr %21, align 8
  %100 = load ptr, ptr %22, align 8
  call void (ptr, ptr, ...) @proto_item_append_text(ptr noundef %99, ptr noundef @.str.343, ptr noundef %100)
  br label %101

101:                                              ; preds = %98, %85
  call void @llvm.lifetime.end.p0(i64 8, ptr %22) #9
  call void @llvm.lifetime.end.p0(i64 8, ptr %21) #9
  br label %102

102:                                              ; preds = %101, %51
  %103 = load i32, ptr %15, align 4
  %104 = add i32 %103, 2
  store i32 %104, ptr %15, align 4
  call void @llvm.lifetime.end.p0(i64 2, ptr %20) #9
  br label %105

105:                                              ; preds = %102, %38
  %106 = load i8, ptr %17, align 1
  %107 = zext i8 %106 to i32
  %108 = icmp ne i32 %107, 0
  br i1 %108, label %109, label %114

109:                                              ; preds = %105
  %110 = load ptr, ptr %14, align 8
  %111 = icmp ne ptr %110, null
  br i1 %111, label %112, label %114

112:                                              ; preds = %109
  %113 = load ptr, ptr %14, align 8
  store i8 1, ptr %113, align 1
  br label %114

114:                                              ; preds = %112, %109, %105
  %115 = load i32, ptr %15, align 4
  %116 = load ptr, ptr %12, align 8
  store i32 %115, ptr %116, align 4
  call void @llvm.lifetime.end.p0(i64 2, ptr %18) #9
  call void @llvm.lifetime.end.p0(i64 1, ptr %17) #9
  call void @llvm.lifetime.end.p0(i64 8, ptr %16) #9
  call void @llvm.lifetime.end.p0(i64 4, ptr %15) #9
  ret void
}