; Function Attrs: null_pointer_is_valid sspstrong uwtable
define internal fastcc void @dissect_pid_ext(ptr noundef %0, ptr noundef %1, ptr noundef %2, ptr noundef %3, ptr noundef captures(none) %4, i32 noundef range(i32 1, -2147483648) %5, ptr noundef writeonly captures(address_is_null) %6) unnamed_addr #0 {
  %8 = alloca i32, align 4
  %9 = alloca i8, align 1
  call void @llvm.lifetime.start.p0(i64 4, ptr nonnull %8) #10
  %10 = load i32, ptr %4, align 4
  store i32 %10, ptr %8, align 4
  %11 = getelementptr inbounds nuw i8, ptr %1, i64 8
  %12 = load ptr, ptr %11, align 8
  call void @llvm.lifetime.start.p0(i64 1, ptr nonnull %9) #10
  store i8 0, ptr %9, align 1
  %13 = call fastcc zeroext i16 @dissect_ot(ptr noundef %0, ptr noundef %1, ptr noundef %2, ptr noundef %3, ptr noundef nonnull %8, i32 noundef %5, ptr noundef nonnull %9)
  %14 = load i32, ptr %8, align 4
  %15 = add i32 %14, 3
  %16 = icmp sgt i32 %15, %5
  br i1 %16, label %17, label %22

17:                                               ; preds = %7
  %18 = load i32, ptr @hf_bytes, align 4
  %19 = sub nsw i32 %5, %14
  %20 = call ptr (ptr, i32, ptr, i32, i32, ptr, ptr, ...) @proto_tree_add_bytes_format(ptr noundef %3, i32 noundef %18, ptr noundef %0, i32 noundef %14, i32 noundef %19, ptr noundef null, ptr noundef nonnull @.str.616)
  %21 = call ptr (ptr, ptr, ptr, ptr, ...) @expert_add_info_format(ptr noundef %1, ptr noundef %20, ptr noundef nonnull @ei_knxip_error, ptr noundef nonnull @.str.569)
  br label %43

22:                                               ; preds = %7
  %23 = call zeroext i16 @tvb_get_ntohs(ptr noundef %0, i32 noundef %14)
  %24 = lshr i16 %23, 4
  %25 = zext nneg i16 %24 to i32
  call void (ptr, i32, ptr, ...) @col_append_fstr(ptr noundef %12, i32 noundef 25, ptr noundef nonnull @.str.335, i32 noundef %25)
  call void (ptr, ptr, ...) @proto_item_append_text(ptr noundef %2, ptr noundef nonnull @.str.336, i32 noundef %25)
  %26 = load i32, ptr @hf_cemi_ext_oi, align 4
  %27 = call ptr @proto_tree_add_item(ptr noundef %3, i32 noundef %26, ptr noundef %0, i32 noundef %14, i32 noundef 2, i32 noundef 0)
  %28 = add i32 %14, 1
  %29 = call zeroext i16 @tvb_get_ntohs(ptr noundef %0, i32 noundef %28)
  %30 = and i16 %29, 4095
  %31 = zext nneg i16 %30 to i32
  call void (ptr, i32, ptr, ...) @col_append_fstr(ptr noundef %12, i32 noundef 25, ptr noundef nonnull @.str.341, i32 noundef %31)
  call void (ptr, ptr, ...) @proto_item_append_text(ptr noundef %2, ptr noundef nonnull @.str.342, i32 noundef %31)
  %.not = icmp eq ptr %3, null
  br i1 %.not, label %get_pid_name.exit.thread, label %32

32:                                               ; preds = %22
  %33 = load i32, ptr @hf_cemi_ext_pid, align 4
  %34 = call ptr @proto_tree_add_item(ptr noundef nonnull %3, i32 noundef %33, ptr noundef %0, i32 noundef %28, i32 noundef 2, i32 noundef 0)
  %35 = icmp samesign ult i16 %30, 51
  br i1 %35, label %get_pid_name.exit, label %36

36:                                               ; preds = %32
  %37 = icmp ult i16 %13, 18
  br i1 %37, label %switch.hole_check, label %get_pid_name.exit.thread

switch.hole_check:                                ; preds = %36
  %switch.maskindex = zext nneg i16 %13 to i32
  %switch.shifted = lshr i32 134083, %switch.maskindex
  %switch.lobit = trunc i32 %switch.shifted to i1
  br i1 %switch.lobit, label %switch.lookup, label %get_pid_name.exit.thread

switch.lookup:                                    ; preds = %switch.hole_check
  %38 = zext nneg i16 %13 to i64
  %switch.gep = getelementptr inbounds nuw [18 x ptr], ptr @switch.table.dissect_pid_ext, i64 0, i64 %38
  %switch.load = load ptr, ptr %switch.gep, align 8
  br label %get_pid_name.exit

get_pid_name.exit:                                ; preds = %switch.lookup, %32
  %.07.ph.sink.i = phi ptr [ @pid_vals, %32 ], [ %switch.load, %switch.lookup ]
  %39 = call ptr @try_val_to_str(i32 noundef range(i32 0, 4096) %31, ptr noundef nonnull %.07.ph.sink.i)
  %.not40 = icmp eq ptr %39, null
  br i1 %.not40, label %get_pid_name.exit.thread, label %40

40:                                               ; preds = %get_pid_name.exit
  call void (ptr, ptr, ...) @proto_item_append_text(ptr noundef %34, ptr noundef nonnull @.str.343, ptr noundef nonnull %39)
  br label %get_pid_name.exit.thread

get_pid_name.exit.thread:                         ; preds = %switch.hole_check, %36, %get_pid_name.exit, %40, %22
  %41 = add i32 %14, 3
  %.pre = load i8, ptr %9, align 1
  %42 = icmp ne i8 %.pre, 0
  br label %43

43:                                               ; preds = %get_pid_name.exit.thread, %17
  %44 = phi i1 [ %42, %get_pid_name.exit.thread ], [ true, %17 ]
  %storemerge = phi i32 [ %41, %get_pid_name.exit.thread ], [ %5, %17 ]
  %45 = icmp ne ptr %6, null
  %or.cond = and i1 %45, %44
  br i1 %or.cond, label %46, label %47

46:                                               ; preds = %43
  store i8 1, ptr %6, align 1
  br label %47

47:                                               ; preds = %46, %43
  store i32 %storemerge, ptr %4, align 4
  call void @llvm.lifetime.end.p0(i64 1, ptr nonnull %9) #10
  call void @llvm.lifetime.end.p0(i64 4, ptr nonnull %8) #10
  ret void
}